target datalayout = "e-m:e-p270:32:32-p271:32:32-p272:64:64-i64:64-i128:128-f80:128-n8:16:32:64-S128"
target triple = "x86_64-pc-linux-gnu"

%struct.__va_list_tag = type { i32, i32, ptr, ptr }
%class.anon = type { i8 }

; Function Attrs: inlinehint mustprogress nounwind uwtable
define internal noundef ptr @"_ZZN8facebook4yoga16getDefaultLoggerEvENK3$_0cvPFiPK8YGConfigPK6YGNode10YGLogLevelPKcP13__va_list_tagEEv"(ptr noundef nonnull align 1 dereferenceable(1) %0) #5 align 2 {
  %2 = alloca ptr, align 8
  store ptr %0, ptr %2, align 8, !tbaa !65
  ret ptr @"_ZZN8facebook4yoga16getDefaultLoggerEvEN3$_08__invokeEPK8YGConfigPK6YGNode10YGLogLevelPKcP13__va_list_tag"
}

; Function Attrs: mustprogress nounwind uwtable
define linkonce_odr hidden noundef i32 @_ZN8facebook4yoga12unscopedEnumENS0_8LogLevelE(i8 noundef zeroext %0) #0 comdat {
  %2 = alloca i8, align 1
  store i8 %0, ptr %2, align 1, !tbaa !4
  %3 = load i8, ptr %2, align 1, !tbaa !4
  %4 = zext i8 %3 to i32
  ret i32 %4
}

; Function Attrs: mustprogress nounwind uwtable
define hidden noundef ptr @_ZN8facebook4yoga16getDefaultLoggerEv() #0 {
  %1 = alloca %class.anon, align 1
  call void @llvm.lifetime.start.p0(i64 1, ptr %1) #9
  %2 = call noundef ptr @"_ZZN8facebook4yoga16getDefaultLoggerEvENK3$_0cvPFiPK8YGConfigPK6YGNode10YGLogLevelPKcP13__va_list_tagEEv"(ptr noundef nonnull align 1 dereferenceable(1) %1) #9
  call void @llvm.lifetime.end.p0(i64 1, ptr %1) #9
  ret ptr %2
}

; Function Attrs: noinline noreturn nounwind uwtable
define linkonce_odr hidden void @__clang_call_terminate(ptr noundef %0) #4 comdat {
  %2 = call ptr @__cxa_begin_catch(ptr %0) #9
  call void @_ZSt9terminatev() #10
  unreachable
}

; Function Attrs: mustprogress uwtable
define internal void @_ZN8facebook4yoga12_GLOBAL__N_14vlogEPKNS0_6ConfigEPKNS0_4NodeENS0_8LogLevelEPKcP13__va_list_tag(ptr noundef %0, ptr noundef %1, i8 noundef zeroext %2, ptr noundef %3, ptr noundef %4) #3 {
  %6 = alloca ptr, align 8
  %7 = alloca ptr, align 8
  %8 = alloca i8, align 1
  %9 = alloca ptr, align 8
  %10 = alloca ptr, align 8
  store ptr %0, ptr %6, align 8, !tbaa !11
  store ptr %1, ptr %7, align 8, !tbaa !13
  store i8 %2, ptr %8, align 1, !tbaa !4
  store ptr %3, ptr %9, align 8, !tbaa !8
  store ptr %4, ptr %10, align 8, !tbaa !15
  %11 = load ptr, ptr %6, align 8, !tbaa !11
  %12 = icmp eq ptr %11, null
  br i1 %12, label %13, label %21

13:                                               ; preds = %5
  %14 = call noundef ptr @_ZN8facebook4yoga16getDefaultLoggerEv()
  %15 = load ptr, ptr %7, align 8, !tbaa !13
  %16 = load i8, ptr %8, align 1, !tbaa !4
  %17 = call noundef i32 @_ZN8facebook4yoga12unscopedEnumENS0_8LogLevelE(i8 noundef zeroext %16)
  %18 = load ptr, ptr %9, align 8, !tbaa !8
  %19 = load ptr, ptr %10, align 8, !tbaa !15
  %20 = call noundef i32 %14(ptr noundef null, ptr noundef %15, i32 noundef %17, ptr noundef %18, ptr noundef %19)
  br label %27

21:                                               ; preds = %5
  %22 = load ptr, ptr %6, align 8, !tbaa !11
  %23 = load ptr, ptr %7, align 8, !tbaa !13
  %24 = load i8, ptr %8, align 1, !tbaa !4
  %25 = load ptr, ptr %9, align 8, !tbaa !8
  %26 = load ptr, ptr %10, align 8, !tbaa !15
  call void @_ZNK8facebook4yoga6Config3logEPKNS0_4NodeENS0_8LogLevelEPKcP13__va_list_tag(ptr noundef nonnull align 8 dereferenceable(48) %22, ptr noundef %23, i8 noundef zeroext %24, ptr noundef %25, ptr noundef %26)
  br label %27

27:                                               ; preds = %21, %13
  ret void
}

; Function Attrs: mustprogress nounwind uwtable
define hidden void @_ZN8facebook4yoga3logENS0_8LogLevelEPKcz(i8 noundef zeroext %0, ptr noundef %1, ...) #0 personality ptr @__gxx_personality_v0 {
  %3 = alloca i8, align 1
  %4 = alloca ptr, align 8
  %5 = alloca [1 x %struct.__va_list_tag], align 16
  store i8 %0, ptr %3, align 1, !tbaa !4
  store ptr %1, ptr %4, align 8, !tbaa !8
  call void @llvm.lifetime.start.p0(i64 24, ptr %5) #9
  %6 = getelementptr inbounds [1 x %struct.__va_list_tag], ptr %5, i64 0, i64 0
  call void @llvm.va_start.p0(ptr %6)
  %7 = load i8, ptr %3, align 1, !tbaa !4
  %8 = load ptr, ptr %4, align 8, !tbaa !8
  %9 = getelementptr inbounds [1 x %struct.__va_list_tag], ptr %5, i64 0, i64 0
  invoke void @_ZN8facebook4yoga12_GLOBAL__N_14vlogEPKNS0_6ConfigEPKNS0_4NodeENS0_8LogLevelEPKcP13__va_list_tag(ptr noundef null, ptr noundef null, i8 noundef zeroext %7, ptr noundef %8, ptr noundef %9)
          to label %10 unwind label %12

10:                                               ; preds = %2
  %11 = getelementptr inbounds [1 x %struct.__va_list_tag], ptr %5, i64 0, i64 0
  call void @llvm.va_end.p0(ptr %11)
  call void @llvm.lifetime.end.p0(i64 24, ptr %5) #9
  ret void

12:                                               ; preds = %2
  %13 = landingpad { ptr, i32 }
          catch ptr null
  %14 = extractvalue { ptr, i32 } %13, 0
  call void @__clang_call_terminate(ptr %14) #10
  unreachable
}