; Function Attrs: mustprogress nofree nounwind uwtable
define hidden void @_ZN8facebook4yoga3logENS0_8LogLevelEPKcz(i8 noundef zeroext %0, ptr noundef readonly captures(none) %1, ...) local_unnamed_addr #0 personality ptr @__gxx_personality_v0 {
  %3 = alloca [1 x %struct.__va_list_tag], align 16
  call void @llvm.lifetime.start.p0(i64 24, ptr nonnull %3) #10
  call void @llvm.va_start.p0(ptr nonnull %3)
  %switch.selectcmp.case1.i.i.i = icmp eq i8 %0, 0
  %switch.selectcmp.case2.i.i.i = icmp eq i8 %0, 5
  %switch.selectcmp.i.i.i = or i1 %switch.selectcmp.case1.i.i.i, %switch.selectcmp.case2.i.i.i
  %stderr.val.i.i.i = load ptr, ptr @stderr, align 8
  %stdout.val.i.i.i = load ptr, ptr @stdout, align 8
  %4 = select i1 %switch.selectcmp.i.i.i, ptr %stderr.val.i.i.i, ptr %stdout.val.i.i.i
  %5 = call noundef i32 @vfprintf(ptr noundef %4, ptr noundef readonly %1, ptr noundef nonnull %3) #10
  call void @llvm.va_end.p0(ptr nonnull %3)
  call void @llvm.lifetime.end.p0(i64 24, ptr nonnull %3) #10
  ret void
}